target datalayout = "e-m:e-p270:32:32-p271:32:32-p272:64:64-i64:64-i128:128-f80:128-n8:16:32:64-S128"
target triple = "x86_64-pc-linux-gnu"

%class.Node_Stack = type { ptr, ptr, ptr, ptr }
%"struct.Node_Stack::INode" = type { ptr, i32 }

; Function Attrs: mustprogress nounwind uwtable
define linkonce_odr hidden noundef i64 @_Z13pointer_deltaPVKvS0_m(ptr noundef %0, ptr noundef %1, i64 noundef %2) #1 comdat {
  %4 = alloca ptr, align 8
  %5 = alloca ptr, align 8
  %6 = alloca i64, align 8
  store ptr %0, ptr %4, align 8
  store ptr %1, ptr %5, align 8
  store i64 %2, ptr %6, align 8
  %7 = load ptr, ptr %4, align 8
  %8 = ptrtoint ptr %7 to i64
  %9 = load ptr, ptr %5, align 8
  %10 = ptrtoint ptr %9 to i64
  %11 = sub i64 %8, %10
  %12 = load i64, ptr %6, align 8
  %13 = udiv i64 %11, %12
  ret i64 %13
}

; Function Attrs: mustprogress nounwind uwtable
define hidden void @_ZN10Node_Stack4growEv(ptr noundef nonnull align 8 dereferenceable(32) %0) #1 align 2 {
  %2 = alloca ptr, align 8
  %3 = alloca i64, align 8
  %4 = alloca i64, align 8
  %5 = alloca i64, align 8
  store ptr %0, ptr %2, align 8
  %6 = load ptr, ptr %2, align 8
  %7 = getelementptr inbounds %class.Node_Stack, ptr %6, i32 0, i32 0
  %8 = load ptr, ptr %7, align 8
  %9 = getelementptr inbounds %class.Node_Stack, ptr %6, i32 0, i32 2
  %10 = load ptr, ptr %9, align 8
  %11 = call noundef i64 @_Z13pointer_deltaPVKvS0_m(ptr noundef %8, ptr noundef %10, i64 noundef 16)
  store i64 %11, ptr %3, align 8
  %12 = getelementptr inbounds %class.Node_Stack, ptr %6, i32 0, i32 1
  %13 = load ptr, ptr %12, align 8
  %14 = getelementptr inbounds %class.Node_Stack, ptr %6, i32 0, i32 2
  %15 = load ptr, ptr %14, align 8
  %16 = call noundef i64 @_Z13pointer_deltaPVKvS0_m(ptr noundef %13, ptr noundef %15, i64 noundef 16)
  store i64 %16, ptr %4, align 8
  %17 = load i64, ptr %4, align 8
  %18 = shl i64 %17, 1
  store i64 %18, ptr %5, align 8
  %19 = getelementptr inbounds %class.Node_Stack, ptr %6, i32 0, i32 3
  %20 = load ptr, ptr %19, align 8
  %21 = getelementptr inbounds %class.Node_Stack, ptr %6, i32 0, i32 2
  %22 = load ptr, ptr %21, align 8
  %23 = load i64, ptr %4, align 8
  %24 = mul i64 %23, 16
  %25 = load i64, ptr %5, align 8
  %26 = mul i64 %25, 16
  %27 = call noundef ptr @_ZN5Arena8AreallocEPvmmN17AllocFailStrategy13AllocFailEnumE(ptr noundef nonnull align 8 dereferenceable(48) %20, ptr noundef %22, i64 noundef %24, i64 noundef %26, i32 noundef 0)
  %28 = getelementptr inbounds %class.Node_Stack, ptr %6, i32 0, i32 2
  store ptr %27, ptr %28, align 8
  %29 = getelementptr inbounds %class.Node_Stack, ptr %6, i32 0, i32 2
  %30 = load ptr, ptr %29, align 8
  %31 = load i64, ptr %5, align 8
  %32 = getelementptr inbounds %"struct.Node_Stack::INode", ptr %30, i64 %31
  %33 = getelementptr inbounds %class.Node_Stack, ptr %6, i32 0, i32 1
  store ptr %32, ptr %33, align 8
  %34 = getelementptr inbounds %class.Node_Stack, ptr %6, i32 0, i32 2
  %35 = load ptr, ptr %34, align 8
  %36 = load i64, ptr %3, align 8
  %37 = getelementptr inbounds %"struct.Node_Stack::INode", ptr %35, i64 %36
  %38 = getelementptr inbounds %class.Node_Stack, ptr %6, i32 0, i32 0
  store ptr %37, ptr %38, align 8
  ret void
}