; Function Attrs: mustprogress nounwind uwtable
define hidden void @_ZN10Node_Stack4growEv(ptr nocapture noundef nonnull align 8 dereferenceable(32) %0) local_unnamed_addr #0 align 2 {
  %2 = load ptr, ptr %0, align 8
  %3 = getelementptr inbounds i8, ptr %0, i64 16
  %4 = load ptr, ptr %3, align 8
  %5 = ptrtoint ptr %2 to i64
  %6 = ptrtoint ptr %4 to i64
  %7 = sub i64 %5, %6
  %8 = lshr i64 %7, 4
  %9 = getelementptr inbounds i8, ptr %0, i64 8
  %10 = load ptr, ptr %9, align 8
  %11 = ptrtoint ptr %10 to i64
  %12 = sub i64 %11, %6
  %13 = getelementptr inbounds i8, ptr %0, i64 24
  %14 = load ptr, ptr %13, align 8
  %15 = and i64 %12, -16
  %16 = shl i64 %12, 1
  %17 = and i64 %16, -32
  %18 = tail call noundef ptr @_ZN5Arena8AreallocEPvmmN17AllocFailStrategy13AllocFailEnumE(ptr noundef nonnull align 8 dereferenceable(48) %14, ptr noundef %4, i64 noundef %15, i64 noundef %17, i32 noundef 0) #15
  store ptr %18, ptr %3, align 8
  %19 = getelementptr inbounds i8, ptr %18, i64 %17
  store ptr %19, ptr %9, align 8
  %20 = getelementptr inbounds %"struct.Node_Stack::INode", ptr %18, i64 %8
  store ptr %20, ptr %0, align 8
  ret void
}